; Function Attrs: mustprogress nounwind uwtable
define dso_local void @_ZN22btBvhTriangleMeshShapeD2Ev(ptr noundef nonnull align 8 dereferenceable(109) %this) unnamed_addr #3 align 2 personality ptr @__gxx_personality_v0 {
entry:
  store ptr getelementptr inbounds ({ [23 x ptr] }, ptr @_ZTV22btBvhTriangleMeshShape, i64 0, i32 0, i64 2), ptr %this, align 8
  %m_ownsBvh = getelementptr inbounds i8, ptr %this, i64 97
  %0 = load i8, ptr %m_ownsBvh, align 1
  %1 = and i8 %0, 1
  %tobool.not = icmp eq i8 %1, 0
  br i1 %tobool.not, label %if.end, label %if.then

if.then:                                          ; preds = %entry
  %m_bvh = getelementptr inbounds i8, ptr %this, i64 80
  %2 = load ptr, ptr %m_bvh, align 8
  %vtable = load ptr, ptr %2, align 8
  %3 = load ptr, ptr %vtable, align 8
  tail call void %3(ptr noundef nonnull align 8 dereferenceable(244) %2) #10
  %4 = load ptr, ptr %m_bvh, align 8
  invoke void @_Z21btAlignedFreeInternalPv(ptr noundef %4)
          to label %if.end unwind label %terminate.lpad

if.end:                                           ; preds = %if.then, %entry
  tail call void @_ZN19btTriangleMeshShapeD2Ev(ptr noundef nonnull align 8 dereferenceable(80) %this) #10
  ret void

terminate.lpad:                                   ; preds = %if.then
  %5 = landingpad { ptr, i32 }
          catch ptr null
  %6 = extractvalue { ptr, i32 } %5, 0
  tail call void @__clang_call_terminate(ptr %6) #11
  unreachable
}